target datalayout = "e-m:e-p270:32:32-p271:32:32-p272:64:64-i64:64-i128:128-f80:128-n8:16:32:64-S128"
target triple = "x86_64-pc-linux-gnu"

%union.pthread_mutex_t = type { %struct.__pthread_mutex_s }
%struct.__pthread_mutex_s = type { i32, i32, i32, i32, i32, i16, i16, %struct.__pthread_internal_list }
%struct.__pthread_internal_list = type { ptr, ptr }
%union.pthread_cond_t = type { %struct.__pthread_cond_s }
%struct.__pthread_cond_s = type { %union.__atomic_wide_counter, %union.__atomic_wide_counter, [2 x i32], [2 x i32], i32, i32, [2 x i32] }
%union.__atomic_wide_counter = type { i64 }
%struct.slurm_conf_t = type { i64, ptr, i16, ptr, ptr, ptr, ptr, ptr, i16, ptr, ptr, ptr, ptr, ptr, ptr, ptr, i16, ptr, ptr, ptr, ptr, i16, ptr, ptr, ptr, i64, ptr, ptr, ptr, ptr, i16, ptr, ptr, i16, i32, ptr, i32, ptr, i32, i32, ptr, ptr, i64, i64, ptr, i16, i16, ptr, i32, i32, ptr, i32, ptr, i32, i16, i16, i16, ptr, i16, i16, ptr, ptr, i32, i16, i16, ptr, i32, i16, ptr, ptr, ptr, ptr, i16, ptr, ptr, ptr, ptr, i32, ptr, ptr, ptr, ptr, i16, i16, ptr, i32, i32, i32, i16, i16, ptr, ptr, i16, ptr, ptr, i32, i32, i32, i32, i32, i64, i32, i32, i16, ptr, ptr, i32, ptr, ptr, ptr, i16, i32, ptr, ptr, i16, ptr, ptr, i32, i16, ptr, ptr, ptr, ptr, i32, i32, i16, i16, i32, ptr, i16, ptr, i32, i32, i32, i32, i32, i32, ptr, i16, ptr, ptr, i32, i16, ptr, i32, i16, i16, ptr, ptr, ptr, i16, ptr, ptr, ptr, ptr, i16, i16, ptr, i16, ptr, i16, ptr, i16, ptr, i16, ptr, ptr, ptr, ptr, i16, ptr, ptr, ptr, i32, ptr, i32, ptr, ptr, i16, ptr, ptr, i32, i16, ptr, ptr, i16, i16, ptr, i16, ptr, ptr, ptr, i32, ptr, i16, i16, ptr, ptr, ptr, ptr, ptr, ptr, ptr, ptr, i16, i32, i16, ptr, ptr, ptr, ptr, i32, ptr, ptr, ptr, i16, ptr, ptr, ptr, i16, ptr, i16, ptr, i16, i16, ptr }
%union.pthread_attr_t = type { i64, [48 x i8] }
%struct.stepd_step_rec_t = type { ptr, ptr, i32, %union.pthread_cond_t, %union.pthread_mutex_t, %struct.slurm_step_id_msg, i32, i32, i32, i32, i32, i32, ptr, ptr, i32, i32, ptr, i32, i32, i32, i32, i32, ptr, ptr, ptr, ptr, i32, i32, i64, i64, i16, i32, ptr, ptr, ptr, i32, ptr, i32, ptr, i32, ptr, i16, i32, i32, i32, ptr, i32, ptr, ptr, ptr, ptr, i32, i32, ptr, ptr, i8, i8, i8, i64, i32, ptr, ptr, ptr, ptr, ptr, ptr, ptr, ptr, ptr, ptr, i32, i32, ptr, i8, %union.pthread_cond_t, %union.pthread_mutex_t, i64, ptr, i32, i32, i32, ptr, i64, ptr, ptr, i8, ptr, i16, ptr, ptr, ptr, ptr, ptr, ptr, i64, ptr, i64, ptr, i16, i8, i16, i32, ptr, i16, ptr, ptr, i16, ptr, ptr, ptr, i8 }
%struct.slurm_step_id_msg = type { i64, i32, i32, i32 }
%struct.jobacct_id_t = type { i32, i32, ptr }
%struct.extern_pid_t = type { ptr, i32 }

@.str = private unnamed_addr constant [22 x i8] c"pthread_attr_init: %m\00", align 1
@.str.1 = private unnamed_addr constant [26 x i8] c"pthread_attr_setscope: %m\00", align 1
@.str.2 = private unnamed_addr constant [30 x i8] c"pthread_attr_setstacksize: %m\00", align 1
@.str.3 = private unnamed_addr constant [28 x i8] c"%s: pthread_create error %m\00", align 1
@.str.4 = private unnamed_addr constant [55 x i8] c"pthread_attr_destroy failed, possible memory leak!: %m\00", align 1
@.str.26 = private unnamed_addr constant [6 x i8] c"req.c\00", align 1
@.str.27 = private unnamed_addr constant [35 x i8] c"%s: pthread_attr_setdetachstate %m\00", align 1
@slurm_conf = external global %struct.slurm_conf_t, align 8
@.str.138 = private unnamed_addr constant [43 x i8] c"%s: non-extern step (%u) given for job %u.\00", align 1
@__func__._handle_add_extern_pid_internal = private unnamed_addr constant [32 x i8] c"_handle_add_extern_pid_internal\00", align 1
@.str.139 = private unnamed_addr constant [20 x i8] c"%s: for %ps, pid %d\00", align 1
@.str.140 = private unnamed_addr constant [68 x i8] c"%s: Job %u can't add pid %d to proctrack plugin in the extern_step.\00", align 1
@.str.141 = private unnamed_addr constant [63 x i8] c"%s: Job %u can't add pid %d to task plugin in the extern_step.\00", align 1
@.str.142 = private unnamed_addr constant [73 x i8] c"%s: Job %u can't add pid %d to jobacct_gather plugin in the extern_step.\00", align 1
@.str.143 = private unnamed_addr constant [17 x i8] c"ulimit_pam_adopt\00", align 1

; Function Attrs: nounwind uwtable
define internal i32 @_handle_add_extern_pid_internal(ptr noundef %0, i32 noundef %1) #0 {
  %3 = alloca i32, align 4
  %4 = alloca ptr, align 8
  %5 = alloca i32, align 4
  %6 = alloca ptr, align 8
  %7 = alloca %struct.jobacct_id_t, align 8
  %8 = alloca i32, align 4
  %9 = alloca i64, align 8
  %10 = alloca %union.pthread_attr_t, align 8
  %11 = alloca i32, align 4
  %12 = alloca i32, align 4
  %13 = alloca i32, align 4
  store ptr %0, ptr %4, align 8
  store i32 %1, ptr %5, align 4
  call void @llvm.lifetime.start.p0(i64 8, ptr %6) #10
  call void @llvm.lifetime.start.p0(i64 16, ptr %7) #10
  %14 = load ptr, ptr %4, align 8
  %15 = getelementptr inbounds nuw %struct.stepd_step_rec_t, ptr %14, i32 0, i32 5
  %16 = getelementptr inbounds nuw %struct.slurm_step_id_msg, ptr %15, i32 0, i32 3
  %17 = load i32, ptr %16, align 8
  %18 = icmp ne i32 %17, -4
  br i1 %18, label %19, label %29

19:                                               ; preds = %2
  %20 = load ptr, ptr %4, align 8
  %21 = getelementptr inbounds nuw %struct.stepd_step_rec_t, ptr %20, i32 0, i32 5
  %22 = getelementptr inbounds nuw %struct.slurm_step_id_msg, ptr %21, i32 0, i32 3
  %23 = load i32, ptr %22, align 8
  %24 = load ptr, ptr %4, align 8
  %25 = getelementptr inbounds nuw %struct.stepd_step_rec_t, ptr %24, i32 0, i32 5
  %26 = getelementptr inbounds nuw %struct.slurm_step_id_msg, ptr %25, i32 0, i32 1
  %27 = load i32, ptr %26, align 8
  %28 = call i32 (ptr, ...) @error(ptr noundef @.str.138, ptr noundef @__func__._handle_add_extern_pid_internal, i32 noundef %23, i32 noundef %27)
  store i32 -1, ptr %3, align 4
  store i32 1, ptr %8, align 4
  br label %156

29:                                               ; preds = %2
  br label %30

30:                                               ; preds = %29
  br label %31

31:                                               ; preds = %30
  %32 = call i32 @get_log_level()
  %33 = icmp sge i32 %32, 5
  br i1 %33, label %34, label %38

34:                                               ; preds = %31
  %35 = load ptr, ptr %4, align 8
  %36 = getelementptr inbounds nuw %struct.stepd_step_rec_t, ptr %35, i32 0, i32 5
  %37 = load i32, ptr %5, align 4
  call void (i32, ptr, ...) @log_var(i32 noundef 5, ptr noundef @.str.139, ptr noundef @__func__._handle_add_extern_pid_internal, ptr noundef %36, i32 noundef %37)
  br label %38

38:                                               ; preds = %34, %31
  br label %39

39:                                               ; preds = %38
  br label %40

40:                                               ; preds = %39
  br label %41

41:                                               ; preds = %40
  br label %42

42:                                               ; preds = %41
  %43 = call ptr @slurm_xcalloc(i64 noundef 1, i64 noundef 16, i1 noundef zeroext true, i1 noundef zeroext false, ptr noundef @.str.26, i32 noundef 1598, ptr noundef @__func__._handle_add_extern_pid_internal)
  store ptr %43, ptr %6, align 8
  %44 = load ptr, ptr %4, align 8
  %45 = load ptr, ptr %6, align 8
  %46 = getelementptr inbounds nuw %struct.extern_pid_t, ptr %45, i32 0, i32 0
  store ptr %44, ptr %46, align 8
  %47 = load i32, ptr %5, align 4
  %48 = load ptr, ptr %6, align 8
  %49 = getelementptr inbounds nuw %struct.extern_pid_t, ptr %48, i32 0, i32 1
  store i32 %47, ptr %49, align 8
  %50 = load ptr, ptr %4, align 8
  %51 = getelementptr inbounds nuw %struct.stepd_step_rec_t, ptr %50, i32 0, i32 10
  %52 = load i32, ptr %51, align 8
  %53 = getelementptr inbounds nuw %struct.jobacct_id_t, ptr %7, i32 0, i32 0
  store i32 %52, ptr %53, align 8
  %54 = load ptr, ptr %4, align 8
  %55 = getelementptr inbounds nuw %struct.stepd_step_rec_t, ptr %54, i32 0, i32 10
  %56 = load i32, ptr %55, align 8
  %57 = getelementptr inbounds nuw %struct.jobacct_id_t, ptr %7, i32 0, i32 1
  store i32 %56, ptr %57, align 4
  %58 = load ptr, ptr %4, align 8
  %59 = getelementptr inbounds nuw %struct.jobacct_id_t, ptr %7, i32 0, i32 2
  store ptr %58, ptr %59, align 8
  %60 = load ptr, ptr %4, align 8
  %61 = load i32, ptr %5, align 4
  %62 = call i32 @proctrack_g_add(ptr noundef %60, i32 noundef %61)
  %63 = icmp ne i32 %62, 0
  br i1 %63, label %64, label %71

64:                                               ; preds = %42
  %65 = load ptr, ptr %4, align 8
  %66 = getelementptr inbounds nuw %struct.stepd_step_rec_t, ptr %65, i32 0, i32 5
  %67 = getelementptr inbounds nuw %struct.slurm_step_id_msg, ptr %66, i32 0, i32 1
  %68 = load i32, ptr %67, align 8
  %69 = load i32, ptr %5, align 4
  %70 = call i32 (ptr, ...) @error(ptr noundef @.str.140, ptr noundef @__func__._handle_add_extern_pid_internal, i32 noundef %68, i32 noundef %69)
  store i32 -1, ptr %3, align 4
  store i32 1, ptr %8, align 4
  br label %156

71:                                               ; preds = %42
  %72 = load i32, ptr %5, align 4
  %73 = call i32 @task_g_add_pid(i32 noundef %72)
  %74 = icmp ne i32 %73, 0
  br i1 %74, label %75, label %82

75:                                               ; preds = %71
  %76 = load ptr, ptr %4, align 8
  %77 = getelementptr inbounds nuw %struct.stepd_step_rec_t, ptr %76, i32 0, i32 5
  %78 = getelementptr inbounds nuw %struct.slurm_step_id_msg, ptr %77, i32 0, i32 1
  %79 = load i32, ptr %78, align 8
  %80 = load i32, ptr %5, align 4
  %81 = call i32 (ptr, ...) @error(ptr noundef @.str.141, ptr noundef @__func__._handle_add_extern_pid_internal, i32 noundef %79, i32 noundef %80)
  store i32 -1, ptr %3, align 4
  store i32 1, ptr %8, align 4
  br label %156

82:                                               ; preds = %71
  %83 = load i32, ptr %5, align 4
  %84 = call i32 @jobacct_gather_add_task(i32 noundef %83, ptr noundef %7, i32 noundef 1)
  %85 = icmp ne i32 %84, 0
  br i1 %85, label %86, label %93

86:                                               ; preds = %82
  %87 = load ptr, ptr %4, align 8
  %88 = getelementptr inbounds nuw %struct.stepd_step_rec_t, ptr %87, i32 0, i32 5
  %89 = getelementptr inbounds nuw %struct.slurm_step_id_msg, ptr %88, i32 0, i32 1
  %90 = load i32, ptr %89, align 8
  %91 = load i32, ptr %5, align 4
  %92 = call i32 (ptr, ...) @error(ptr noundef @.str.142, ptr noundef @__func__._handle_add_extern_pid_internal, i32 noundef %90, i32 noundef %91)
  store i32 -1, ptr %3, align 4
  store i32 1, ptr %8, align 4
  br label %156

93:                                               ; preds = %82
  %94 = load ptr, ptr getelementptr inbounds nuw (%struct.slurm_conf_t, ptr @slurm_conf, i32 0, i32 90), align 8
  %95 = call ptr @xstrcasestr(ptr noundef %94, ptr noundef @.str.143)
  %96 = icmp ne ptr %95, null
  br i1 %96, label %97, label %100

97:                                               ; preds = %93
  %98 = load ptr, ptr %4, align 8
  %99 = load i32, ptr %5, align 4
  call void @set_user_limits(ptr noundef %98, i32 noundef %99)
  br label %100

100:                                              ; preds = %97, %93
  br label %101

101:                                              ; preds = %100
  call void @llvm.lifetime.start.p0(i64 8, ptr %9) #10
  call void @llvm.lifetime.start.p0(i64 56, ptr %10) #10
  call void @llvm.lifetime.start.p0(i64 4, ptr %11) #10
  br label %102

102:                                              ; preds = %101
  call void @llvm.lifetime.start.p0(i64 4, ptr %12) #10
  %103 = call i32 @pthread_attr_init(ptr noundef %10) #10
  store i32 %103, ptr %12, align 4
  %104 = load i32, ptr %12, align 4
  %105 = icmp ne i32 %104, 0
  br i1 %105, label %106, label %109

106:                                              ; preds = %102
  %107 = load i32, ptr %12, align 4
  %108 = call ptr @__errno_location() #11
  store i32 %107, ptr %108, align 4
  call void (ptr, ...) @fatal(ptr noundef @.str) #12
  unreachable

109:                                              ; preds = %102
  %110 = call i32 @pthread_attr_setscope(ptr noundef %10, i32 noundef 0) #10
  store i32 %110, ptr %12, align 4
  %111 = load i32, ptr %12, align 4
  %112 = icmp ne i32 %111, 0
  br i1 %112, label %113, label %117

113:                                              ; preds = %109
  %114 = load i32, ptr %12, align 4
  %115 = call ptr @__errno_location() #11
  store i32 %114, ptr %115, align 4
  %116 = call i32 (ptr, ...) @error(ptr noundef @.str.1)
  br label %117

117:                                              ; preds = %113, %109
  %118 = call i32 @pthread_attr_setstacksize(ptr noundef %10, i64 noundef 1048576) #10
  store i32 %118, ptr %12, align 4
  %119 = load i32, ptr %12, align 4
  %120 = icmp ne i32 %119, 0
  br i1 %120, label %121, label %125

121:                                              ; preds = %117
  %122 = load i32, ptr %12, align 4
  %123 = call ptr @__errno_location() #11
  store i32 %122, ptr %123, align 4
  %124 = call i32 (ptr, ...) @error(ptr noundef @.str.2)
  br label %125

125:                                              ; preds = %121, %117
  call void @llvm.lifetime.end.p0(i64 4, ptr %12) #10
  br label %126

126:                                              ; preds = %125
  br label %127

127:                                              ; preds = %126
  %128 = call i32 @pthread_attr_setdetachstate(ptr noundef %10, i32 noundef 1) #10
  store i32 %128, ptr %11, align 4
  %129 = load i32, ptr %11, align 4
  %130 = icmp ne i32 %129, 0
  br i1 %130, label %131, label %134

131:                                              ; preds = %127
  %132 = load i32, ptr %11, align 4
  %133 = call ptr @__errno_location() #11
  store i32 %132, ptr %133, align 4
  call void (ptr, ...) @fatal(ptr noundef @.str.27, ptr noundef @__func__._handle_add_extern_pid_internal) #12
  unreachable

134:                                              ; preds = %127
  %135 = load ptr, ptr %6, align 8
  %136 = call i32 @pthread_create(ptr noundef %9, ptr noundef %10, ptr noundef @_wait_extern_pid, ptr noundef %135) #10
  store i32 %136, ptr %11, align 4
  %137 = load i32, ptr %11, align 4
  %138 = icmp ne i32 %137, 0
  br i1 %138, label %139, label %142

139:                                              ; preds = %134
  %140 = load i32, ptr %11, align 4
  %141 = call ptr @__errno_location() #11
  store i32 %140, ptr %141, align 4
  call void (ptr, ...) @fatal(ptr noundef @.str.3, ptr noundef @__func__._handle_add_extern_pid_internal) #12
  unreachable

142:                                              ; preds = %134
  br label %143

143:                                              ; preds = %142
  call void @llvm.lifetime.start.p0(i64 4, ptr %13) #10
  %144 = call i32 @pthread_attr_destroy(ptr noundef %10) #10
  store i32 %144, ptr %13, align 4
  %145 = load i32, ptr %13, align 4
  %146 = icmp ne i32 %145, 0
  br i1 %146, label %147, label %151

147:                                              ; preds = %143
  %148 = load i32, ptr %13, align 4
  %149 = call ptr @__errno_location() #11
  store i32 %148, ptr %149, align 4
  %150 = call i32 (ptr, ...) @error(ptr noundef @.str.4)
  br label %151

151:                                              ; preds = %147, %143
  call void @llvm.lifetime.end.p0(i64 4, ptr %13) #10
  br label %152

152:                                              ; preds = %151
  br label %153

153:                                              ; preds = %152
  call void @llvm.lifetime.end.p0(i64 4, ptr %11) #10
  call void @llvm.lifetime.end.p0(i64 56, ptr %10) #10
  call void @llvm.lifetime.end.p0(i64 8, ptr %9) #10
  br label %154

154:                                              ; preds = %153
  br label %155

155:                                              ; preds = %154
  store i32 0, ptr %3, align 4
  store i32 1, ptr %8, align 4
  br label %156

156:                                              ; preds = %155, %86, %75, %64, %19
  call void @llvm.lifetime.end.p0(i64 16, ptr %7) #10
  call void @llvm.lifetime.end.p0(i64 8, ptr %6) #10
  %157 = load i32, ptr %3, align 4
  ret i32 %157
}