; Function Attrs: nounwind uwtable
define internal fastcc range(i32 -1, 1) i32 @_handle_add_extern_pid_internal(ptr noundef %0, i32 noundef %1) unnamed_addr #0 {
  %3 = alloca %struct.jobacct_id_t, align 8
  %4 = alloca i64, align 8
  %5 = alloca %union.pthread_attr_t, align 8
  call void @llvm.lifetime.start.p0(i64 16, ptr nonnull %3) #13
  %6 = getelementptr inbounds nuw i8, ptr %0, i64 112
  %7 = getelementptr inbounds nuw i8, ptr %0, i64 128
  %8 = load i32, ptr %7, align 8
  %.not = icmp eq i32 %8, -4
  br i1 %.not, label %13, label %9

9:                                                ; preds = %2
  %10 = getelementptr inbounds nuw i8, ptr %0, i64 120
  %11 = load i32, ptr %10, align 8
  %12 = tail call i32 (ptr, ...) @error(ptr noundef nonnull @.str.138, ptr noundef nonnull @__func__._handle_add_extern_pid_internal, i32 noundef %8, i32 noundef %11) #13
  br label %73

13:                                               ; preds = %2
  %14 = tail call i32 @get_log_level() #13
  %15 = icmp sgt i32 %14, 4
  br i1 %15, label %16, label %17

16:                                               ; preds = %13
  tail call void (i32, ptr, ...) @log_var(i32 noundef 5, ptr noundef nonnull @.str.139, ptr noundef nonnull @__func__._handle_add_extern_pid_internal, ptr noundef nonnull %6, i32 noundef %1) #13
  br label %17

17:                                               ; preds = %16, %13
  %18 = tail call ptr @slurm_xcalloc(i64 noundef 1, i64 noundef 16, i1 noundef zeroext true, i1 noundef zeroext false, ptr noundef nonnull @.str.26, i32 noundef 1598, ptr noundef nonnull @__func__._handle_add_extern_pid_internal) #13
  store ptr %0, ptr %18, align 8
  %19 = getelementptr inbounds nuw i8, ptr %18, i64 8
  store i32 %1, ptr %19, align 8
  %20 = getelementptr inbounds nuw i8, ptr %0, i64 152
  %21 = load i32, ptr %20, align 8
  store i32 %21, ptr %3, align 8
  %22 = getelementptr inbounds nuw i8, ptr %3, i64 4
  store i32 %21, ptr %22, align 4
  %23 = getelementptr inbounds nuw i8, ptr %3, i64 8
  store ptr %0, ptr %23, align 8
  %24 = tail call i32 @proctrack_g_add(ptr noundef nonnull %0, i32 noundef %1) #13
  %.not44 = icmp eq i32 %24, 0
  br i1 %.not44, label %29, label %25

25:                                               ; preds = %17
  %26 = getelementptr inbounds nuw i8, ptr %0, i64 120
  %27 = load i32, ptr %26, align 8
  %28 = tail call i32 (ptr, ...) @error(ptr noundef nonnull @.str.140, ptr noundef nonnull @__func__._handle_add_extern_pid_internal, i32 noundef %27, i32 noundef %1) #13
  br label %73

29:                                               ; preds = %17
  %30 = tail call i32 @task_g_add_pid(i32 noundef %1) #13
  %.not45 = icmp eq i32 %30, 0
  br i1 %.not45, label %35, label %31

31:                                               ; preds = %29
  %32 = getelementptr inbounds nuw i8, ptr %0, i64 120
  %33 = load i32, ptr %32, align 8
  %34 = tail call i32 (ptr, ...) @error(ptr noundef nonnull @.str.141, ptr noundef nonnull @__func__._handle_add_extern_pid_internal, i32 noundef %33, i32 noundef %1) #13
  br label %73

35:                                               ; preds = %29
  %36 = call i32 @jobacct_gather_add_task(i32 noundef %1, ptr noundef nonnull %3, i32 noundef 1) #13
  %.not46 = icmp eq i32 %36, 0
  br i1 %.not46, label %41, label %37

37:                                               ; preds = %35
  %38 = getelementptr inbounds nuw i8, ptr %0, i64 120
  %39 = load i32, ptr %38, align 8
  %40 = call i32 (ptr, ...) @error(ptr noundef nonnull @.str.142, ptr noundef nonnull @__func__._handle_add_extern_pid_internal, i32 noundef %39, i32 noundef %1) #13
  br label %73

41:                                               ; preds = %35
  %42 = load ptr, ptr getelementptr inbounds nuw (i8, ptr @slurm_conf, i64 608), align 8
  %43 = call ptr @xstrcasestr(ptr noundef %42, ptr noundef nonnull @.str.143) #13
  %.not47 = icmp eq ptr %43, null
  br i1 %.not47, label %45, label %44

44:                                               ; preds = %41
  call void @set_user_limits(ptr noundef nonnull %0, i32 noundef %1) #13
  br label %45

45:                                               ; preds = %41, %44
  call void @llvm.lifetime.start.p0(i64 8, ptr nonnull %4) #13
  call void @llvm.lifetime.start.p0(i64 56, ptr nonnull %5) #13
  %46 = call i32 @pthread_attr_init(ptr noundef nonnull %5) #13
  %.not48 = icmp eq i32 %46, 0
  br i1 %.not48, label %49, label %47

47:                                               ; preds = %45
  %48 = tail call ptr @__errno_location() #14
  store i32 %46, ptr %48, align 4
  call void (ptr, ...) @fatal(ptr noundef nonnull @.str) #15
  unreachable

49:                                               ; preds = %45
  %50 = call i32 @pthread_attr_setscope(ptr noundef nonnull %5, i32 noundef 0) #13
  %.not49 = icmp eq i32 %50, 0
  br i1 %.not49, label %54, label %51

51:                                               ; preds = %49
  %52 = tail call ptr @__errno_location() #14
  store i32 %50, ptr %52, align 4
  %53 = call i32 (ptr, ...) @error(ptr noundef nonnull @.str.1) #13
  br label %54

54:                                               ; preds = %51, %49
  %55 = call i32 @pthread_attr_setstacksize(ptr noundef nonnull %5, i64 noundef 1048576) #13
  %.not50 = icmp eq i32 %55, 0
  br i1 %.not50, label %59, label %56

56:                                               ; preds = %54
  %57 = tail call ptr @__errno_location() #14
  store i32 %55, ptr %57, align 4
  %58 = call i32 (ptr, ...) @error(ptr noundef nonnull @.str.2) #13
  br label %59

59:                                               ; preds = %56, %54
  %60 = call i32 @pthread_attr_setdetachstate(ptr noundef nonnull %5, i32 noundef 1) #13
  %.not51 = icmp eq i32 %60, 0
  br i1 %.not51, label %63, label %61

61:                                               ; preds = %59
  %62 = tail call ptr @__errno_location() #14
  store i32 %60, ptr %62, align 4
  call void (ptr, ...) @fatal(ptr noundef nonnull @.str.27, ptr noundef nonnull @__func__._handle_add_extern_pid_internal) #15
  unreachable

63:                                               ; preds = %59
  %64 = call i32 @pthread_create(ptr noundef nonnull %4, ptr noundef nonnull %5, ptr noundef nonnull @_wait_extern_pid, ptr noundef nonnull %18) #13
  %.not52 = icmp eq i32 %64, 0
  br i1 %.not52, label %67, label %65

65:                                               ; preds = %63
  %66 = tail call ptr @__errno_location() #14
  store i32 %64, ptr %66, align 4
  call void (ptr, ...) @fatal(ptr noundef nonnull @.str.3, ptr noundef nonnull @__func__._handle_add_extern_pid_internal) #15
  unreachable

67:                                               ; preds = %63
  %68 = call i32 @pthread_attr_destroy(ptr noundef nonnull %5) #13
  %.not53 = icmp eq i32 %68, 0
  br i1 %.not53, label %72, label %69

69:                                               ; preds = %67
  %70 = tail call ptr @__errno_location() #14
  store i32 %68, ptr %70, align 4
  %71 = call i32 (ptr, ...) @error(ptr noundef nonnull @.str.4) #13
  br label %72

72:                                               ; preds = %69, %67
  call void @llvm.lifetime.end.p0(i64 56, ptr nonnull %5) #13
  call void @llvm.lifetime.end.p0(i64 8, ptr nonnull %4) #13
  br label %73

73:                                               ; preds = %72, %37, %31, %25, %9
  %.0 = phi i32 [ -1, %9 ], [ -1, %25 ], [ -1, %31 ], [ -1, %37 ], [ 0, %72 ]
  call void @llvm.lifetime.end.p0(i64 16, ptr nonnull %3) #13
  ret i32 %.0
}